target datalayout = "e-m:e-p270:32:32-p271:32:32-p272:64:64-i64:64-i128:128-f80:128-n8:16:32:64-S128"
target triple = "x86_64-pc-linux-gnu"

%"class.zxing::qrcode::Detector" = type <{ %"class.zxing::Counted.base", [4 x i8], %"class.zxing::Ref", %"class.zxing::Ref.0", %"class.std::vector", i32, [4 x i8] }>
%"class.zxing::Counted.base" = type <{ ptr, i32 }>
%"class.zxing::Ref" = type { ptr }
%"class.zxing::Ref.0" = type { ptr }
%"class.std::vector" = type { %"struct.std::_Vector_base" }
%"struct.std::_Vector_base" = type { %"struct.std::_Vector_base<zxing::Ref<zxing::qrcode::PatternResult>, std::allocator<zxing::Ref<zxing::qrcode::PatternResult>>>::_Vector_impl" }
%"struct.std::_Vector_base<zxing::Ref<zxing::qrcode::PatternResult>, std::allocator<zxing::Ref<zxing::qrcode::PatternResult>>>::_Vector_impl" = type { %"struct.std::_Vector_base<zxing::Ref<zxing::qrcode::PatternResult>, std::allocator<zxing::Ref<zxing::qrcode::PatternResult>>>::_Vector_impl_data" }
%"struct.std::_Vector_base<zxing::Ref<zxing::qrcode::PatternResult>, std::allocator<zxing::Ref<zxing::qrcode::PatternResult>>>::_Vector_impl_data" = type { ptr, ptr, ptr }
%"class.zxing::BitMatrix" = type <{ %"class.zxing::Counted.base", i32, i32, i32, %"class.std::vector.47", %"class.std::vector.47", %"class.std::vector.52", %"class.std::vector.47", %"class.std::vector.47", %"class.std::vector.47", %"class.std::vector.47", %"class.std::vector.52", %"class.std::vector.47", %"class.std::vector.47", %"class.zxing::ArrayRef.56", %"class.zxing::ArrayRef.57", i8, i8, [6 x i8] }>
%"class.std::vector.52" = type { %"struct.std::_Bvector_base" }
%"struct.std::_Bvector_base" = type { %"struct.std::_Bvector_base<std::allocator<bool>>::_Bvector_impl" }
%"struct.std::_Bvector_base<std::allocator<bool>>::_Bvector_impl" = type { %"struct.std::_Bvector_base<std::allocator<bool>>::_Bvector_impl_data" }
%"struct.std::_Bvector_base<std::allocator<bool>>::_Bvector_impl_data" = type { %"struct.std::_Bit_iterator", %"struct.std::_Bit_iterator", ptr }
%"struct.std::_Bit_iterator" = type { %"struct.std::_Bit_iterator_base.base", [4 x i8] }
%"struct.std::_Bit_iterator_base.base" = type <{ ptr, i32 }>
%"class.std::vector.47" = type { %"struct.std::_Vector_base.48" }
%"struct.std::_Vector_base.48" = type { %"struct.std::_Vector_base<short, std::allocator<short>>::_Vector_impl" }
%"struct.std::_Vector_base<short, std::allocator<short>>::_Vector_impl" = type { %"struct.std::_Vector_base<short, std::allocator<short>>::_Vector_impl_data" }
%"struct.std::_Vector_base<short, std::allocator<short>>::_Vector_impl_data" = type { ptr, ptr, ptr }
%"class.zxing::ArrayRef.56" = type { %"class.zxing::Counted.base", ptr }
%"class.zxing::ArrayRef.57" = type { %"class.zxing::Counted.base", ptr }
%"class.zxing::Array.68" = type { %"class.zxing::Counted.base", %"class.std::vector.69" }
%"class.std::vector.69" = type { %"struct.std::_Vector_base.70" }
%"struct.std::_Vector_base.70" = type { %"struct.std::_Vector_base<unsigned char, std::allocator<unsigned char>>::_Vector_impl" }
%"struct.std::_Vector_base<unsigned char, std::allocator<unsigned char>>::_Vector_impl" = type { %"struct.std::_Vector_base<unsigned char, std::allocator<unsigned char>>::_Vector_impl_data" }
%"struct.std::_Vector_base<unsigned char, std::allocator<unsigned char>>::_Vector_impl_data" = type { ptr, ptr, ptr }

; Function Attrs: mustprogress nounwind uwtable
define linkonce_odr hidden noundef nonnull align 1 dereferenceable(1) ptr @_ZNSt6vectorIhSaIhEEixEm(ptr noundef nonnull align 8 dereferenceable(24) %0, i64 noundef %1) #1 comdat align 2 {
  %3 = alloca ptr, align 8
  %4 = alloca i64, align 8
  store ptr %0, ptr %3, align 8, !tbaa !282
  store i64 %1, ptr %4, align 8, !tbaa !40
  %5 = load ptr, ptr %3, align 8
  %6 = getelementptr inbounds nuw %"struct.std::_Vector_base.70", ptr %5, i32 0, i32 0
  %7 = getelementptr inbounds nuw %"struct.std::_Vector_base<unsigned char, std::allocator<unsigned char>>::_Vector_impl_data", ptr %6, i32 0, i32 0
  %8 = load ptr, ptr %7, align 8, !tbaa !284
  %9 = load i64, ptr %4, align 8, !tbaa !40
  %10 = getelementptr inbounds nuw i8, ptr %8, i64 %9
  ret ptr %10
}

; Function Attrs: mustprogress nounwind uwtable
define linkonce_odr hidden noundef nonnull align 1 dereferenceable(1) ptr @_ZN5zxing5ArrayIhEixEi(ptr noundef nonnull align 8 dereferenceable(40) %0, i32 noundef %1) #1 comdat align 2 {
  %3 = alloca ptr, align 8
  %4 = alloca i32, align 4
  store ptr %0, ptr %3, align 8, !tbaa !281
  store i32 %1, ptr %4, align 4, !tbaa !75
  %5 = load ptr, ptr %3, align 8
  %6 = getelementptr inbounds nuw %"class.zxing::Array.68", ptr %5, i32 0, i32 1
  %7 = load i32, ptr %4, align 4, !tbaa !75
  %8 = sext i32 %7 to i64
  %9 = call noundef nonnull align 1 dereferenceable(1) ptr @_ZNSt6vectorIhSaIhEEixEm(ptr noundef nonnull align 8 dereferenceable(24) %6, i64 noundef %8) #16
  ret ptr %9
}

; Function Attrs: mustprogress nounwind uwtable
define linkonce_odr hidden noundef float @_ZNSt14numeric_limitsIfE9quiet_NaNEv() #1 comdat align 2 {
  ret float 0x7FF8000000000000
}

; Function Attrs: inlinehint mustprogress nounwind uwtable
define linkonce_odr noundef float @_ZSt4sqrtf(float noundef %0) #6 comdat {
  %2 = alloca float, align 4
  store float %0, ptr %2, align 4, !tbaa !80
  %3 = load float, ptr %2, align 4, !tbaa !80
  %4 = call float @sqrtf(float noundef %3) #16, !tbaa !75
  ret float %4
}

; Function Attrs: mustprogress uwtable
define linkonce_odr hidden noundef nonnull align 1 dereferenceable(1) ptr @_ZNK5zxing8ArrayRefIhEixEi(ptr noundef nonnull align 8 dereferenceable(24) %0, i32 noundef %1) #0 comdat align 2 {
  %3 = alloca ptr, align 8
  %4 = alloca i32, align 4
  store ptr %0, ptr %3, align 8, !tbaa !278
  store i32 %1, ptr %4, align 4, !tbaa !75
  %5 = load ptr, ptr %3, align 8
  %6 = getelementptr inbounds nuw %"class.zxing::ArrayRef.56", ptr %5, i32 0, i32 1
  %7 = load ptr, ptr %6, align 8, !tbaa !280
  %8 = load i32, ptr %4, align 4, !tbaa !75
  %9 = call noundef nonnull align 1 dereferenceable(1) ptr @_ZN5zxing5ArrayIhEixEi(ptr noundef nonnull align 8 dereferenceable(40) %7, i32 noundef %8)
  ret ptr %9
}

; Function Attrs: inlinehint mustprogress nounwind uwtable
define linkonce_odr hidden noundef float @_ZN5zxing3nanEv() #6 comdat {
  %1 = call noundef float @_ZNSt14numeric_limitsIfE9quiet_NaNEv() #16
  ret float %1
}

; Function Attrs: inlinehint mustprogress uwtable
define linkonce_odr hidden noundef float @_ZN5zxing6common9MathUtils8distanceEiiii(i32 noundef %0, i32 noundef %1, i32 noundef %2, i32 noundef %3) #9 comdat align 2 {
  %5 = alloca i32, align 4
  %6 = alloca i32, align 4
  %7 = alloca i32, align 4
  %8 = alloca i32, align 4
  %9 = alloca i32, align 4
  %10 = alloca i32, align 4
  store i32 %0, ptr %5, align 4, !tbaa !75
  store i32 %1, ptr %6, align 4, !tbaa !75
  store i32 %2, ptr %7, align 4, !tbaa !75
  store i32 %3, ptr %8, align 4, !tbaa !75
  call void @llvm.lifetime.start.p0(i64 4, ptr %9) #16
  %11 = load i32, ptr %5, align 4, !tbaa !75
  %12 = load i32, ptr %7, align 4, !tbaa !75
  %13 = sub nsw i32 %11, %12
  store i32 %13, ptr %9, align 4, !tbaa !75
  call void @llvm.lifetime.start.p0(i64 4, ptr %10) #16
  %14 = load i32, ptr %6, align 4, !tbaa !75
  %15 = load i32, ptr %8, align 4, !tbaa !75
  %16 = sub nsw i32 %14, %15
  store i32 %16, ptr %10, align 4, !tbaa !75
  %17 = load i32, ptr %9, align 4, !tbaa !75
  %18 = load i32, ptr %9, align 4, !tbaa !75
  %19 = mul nsw i32 %17, %18
  %20 = load i32, ptr %10, align 4, !tbaa !75
  %21 = load i32, ptr %10, align 4, !tbaa !75
  %22 = mul nsw i32 %20, %21
  %23 = add nsw i32 %19, %22
  %24 = sitofp i32 %23 to float
  %25 = call noundef float @_ZSt4sqrtf(float noundef %24)
  call void @llvm.lifetime.end.p0(i64 4, ptr %10) #16
  call void @llvm.lifetime.end.p0(i64 4, ptr %9) #16
  ret float %25
}

; Function Attrs: mustprogress uwtable
define linkonce_odr hidden noundef zeroext i8 @_ZNK5zxing9BitMatrix3getEii(ptr noundef nonnull align 8 dereferenceable(346) %0, i32 noundef %1, i32 noundef %2) #0 comdat align 2 {
  %4 = alloca ptr, align 8
  %5 = alloca i32, align 4
  %6 = alloca i32, align 4
  store ptr %0, ptr %4, align 8, !tbaa !168
  store i32 %1, ptr %5, align 4, !tbaa !75
  store i32 %2, ptr %6, align 4, !tbaa !75
  %7 = load ptr, ptr %4, align 8
  %8 = getelementptr inbounds nuw %"class.zxing::BitMatrix", ptr %7, i32 0, i32 14
  %9 = getelementptr inbounds nuw %"class.zxing::BitMatrix", ptr %7, i32 0, i32 1
  %10 = load i32, ptr %9, align 4, !tbaa !169
  %11 = load i32, ptr %6, align 4, !tbaa !75
  %12 = mul nsw i32 %10, %11
  %13 = load i32, ptr %5, align 4, !tbaa !75
  %14 = add nsw i32 %12, %13
  %15 = call noundef nonnull align 1 dereferenceable(1) ptr @_ZNK5zxing8ArrayRefIhEixEi(ptr noundef nonnull align 8 dereferenceable(24) %8, i32 noundef %14)
  %16 = load i8, ptr %15, align 1, !tbaa !187
  ret i8 %16
}

; Function Attrs: mustprogress nounwind uwtable
define linkonce_odr hidden noundef ptr @_ZNK5zxing3RefINS_9BitMatrixEEptEv(ptr noundef nonnull align 8 dereferenceable(8) %0) #1 comdat align 2 {
  %2 = alloca ptr, align 8
  store ptr %0, ptr %2, align 8, !tbaa !8
  %3 = load ptr, ptr %2, align 8
  %4 = getelementptr inbounds nuw %"class.zxing::Ref", ptr %3, i32 0, i32 0
  %5 = load ptr, ptr %4, align 8, !tbaa !31
  ret ptr %5
}

; Function Attrs: mustprogress uwtable
define hidden noundef float @_ZN5zxing6qrcode8Detector24sizeOfBlackWhiteBlackRunEiiii(ptr noundef nonnull align 8 dereferenceable(60) %0, i32 noundef %1, i32 noundef %2, i32 noundef %3, i32 noundef %4) #0 align 2 {
  %6 = alloca float, align 4
  %7 = alloca ptr, align 8
  %8 = alloca i32, align 4
  %9 = alloca i32, align 4
  %10 = alloca i32, align 4
  %11 = alloca i32, align 4
  %12 = alloca i8, align 1
  %13 = alloca i32, align 4
  %14 = alloca i32, align 4
  %15 = alloca i32, align 4
  %16 = alloca i32, align 4
  %17 = alloca i32, align 4
  %18 = alloca i32, align 4
  %19 = alloca i32, align 4
  %20 = alloca i32, align 4
  %21 = alloca i32, align 4
  %22 = alloca i32, align 4
  %23 = alloca i32, align 4
  %24 = alloca i32, align 4
  %25 = alloca i32, align 4
  store ptr %0, ptr %7, align 8, !tbaa !3
  store i32 %1, ptr %8, align 4, !tbaa !75
  store i32 %2, ptr %9, align 4, !tbaa !75
  store i32 %3, ptr %10, align 4, !tbaa !75
  store i32 %4, ptr %11, align 4, !tbaa !75
  %26 = load ptr, ptr %7, align 8
  call void @llvm.lifetime.start.p0(i64 1, ptr %12) #16
  %27 = load i32, ptr %11, align 4, !tbaa !75
  %28 = load i32, ptr %9, align 4, !tbaa !75
  %29 = sub nsw i32 %27, %28
  %30 = call i32 @llvm.abs.i32(i32 %29, i1 true)
  %31 = load i32, ptr %10, align 4, !tbaa !75
  %32 = load i32, ptr %8, align 4, !tbaa !75
  %33 = sub nsw i32 %31, %32
  %34 = call i32 @llvm.abs.i32(i32 %33, i1 true)
  %35 = icmp sgt i32 %30, %34
  %36 = zext i1 %35 to i8
  store i8 %36, ptr %12, align 1, !tbaa !85
  %37 = load i8, ptr %12, align 1, !tbaa !85, !range !87, !noundef !88
  %38 = trunc i8 %37 to i1
  br i1 %38, label %39, label %46

39:                                               ; preds = %5
  call void @llvm.lifetime.start.p0(i64 4, ptr %13) #16
  %40 = load i32, ptr %8, align 4, !tbaa !75
  store i32 %40, ptr %13, align 4, !tbaa !75
  %41 = load i32, ptr %9, align 4, !tbaa !75
  store i32 %41, ptr %8, align 4, !tbaa !75
  %42 = load i32, ptr %13, align 4, !tbaa !75
  store i32 %42, ptr %9, align 4, !tbaa !75
  %43 = load i32, ptr %10, align 4, !tbaa !75
  store i32 %43, ptr %13, align 4, !tbaa !75
  %44 = load i32, ptr %11, align 4, !tbaa !75
  store i32 %44, ptr %10, align 4, !tbaa !75
  %45 = load i32, ptr %13, align 4, !tbaa !75
  store i32 %45, ptr %11, align 4, !tbaa !75
  call void @llvm.lifetime.end.p0(i64 4, ptr %13) #16
  br label %46

46:                                               ; preds = %39, %5
  call void @llvm.lifetime.start.p0(i64 4, ptr %14) #16
  %47 = load i32, ptr %10, align 4, !tbaa !75
  %48 = load i32, ptr %8, align 4, !tbaa !75
  %49 = sub nsw i32 %47, %48
  %50 = call i32 @llvm.abs.i32(i32 %49, i1 true)
  store i32 %50, ptr %14, align 4, !tbaa !75
  call void @llvm.lifetime.start.p0(i64 4, ptr %15) #16
  %51 = load i32, ptr %11, align 4, !tbaa !75
  %52 = load i32, ptr %9, align 4, !tbaa !75
  %53 = sub nsw i32 %51, %52
  %54 = call i32 @llvm.abs.i32(i32 %53, i1 true)
  store i32 %54, ptr %15, align 4, !tbaa !75
  call void @llvm.lifetime.start.p0(i64 4, ptr %16) #16
  %55 = load i32, ptr %14, align 4, !tbaa !75
  %56 = sub nsw i32 0, %55
  %57 = ashr i32 %56, 1
  store i32 %57, ptr %16, align 4, !tbaa !75
  call void @llvm.lifetime.start.p0(i64 4, ptr %17) #16
  %58 = load i32, ptr %8, align 4, !tbaa !75
  %59 = load i32, ptr %10, align 4, !tbaa !75
  %60 = icmp slt i32 %58, %59
  %61 = select i1 %60, i32 1, i32 -1
  store i32 %61, ptr %17, align 4, !tbaa !75
  call void @llvm.lifetime.start.p0(i64 4, ptr %18) #16
  %62 = load i32, ptr %9, align 4, !tbaa !75
  %63 = load i32, ptr %11, align 4, !tbaa !75
  %64 = icmp slt i32 %62, %63
  %65 = select i1 %64, i32 1, i32 -1
  store i32 %65, ptr %18, align 4, !tbaa !75
  call void @llvm.lifetime.start.p0(i64 4, ptr %19) #16
  store i32 0, ptr %19, align 4, !tbaa !75
  call void @llvm.lifetime.start.p0(i64 4, ptr %20) #16
  %66 = load i32, ptr %10, align 4, !tbaa !75
  %67 = load i32, ptr %17, align 4, !tbaa !75
  %68 = add nsw i32 %66, %67
  store i32 %68, ptr %20, align 4, !tbaa !75
  call void @llvm.lifetime.start.p0(i64 4, ptr %21) #16
  %69 = load i32, ptr %8, align 4, !tbaa !75
  store i32 %69, ptr %21, align 4, !tbaa !75
  call void @llvm.lifetime.start.p0(i64 4, ptr %22) #16
  %70 = load i32, ptr %9, align 4, !tbaa !75
  store i32 %70, ptr %22, align 4, !tbaa !75
  br label %71

71:                                               ; preds = %138, %46
  %72 = load i32, ptr %21, align 4, !tbaa !75
  %73 = load i32, ptr %20, align 4, !tbaa !75
  %74 = icmp ne i32 %72, %73
  br i1 %74, label %76, label %75

75:                                               ; preds = %71
  store i32 2, ptr %23, align 4
  br label %142

76:                                               ; preds = %71
  call void @llvm.lifetime.start.p0(i64 4, ptr %24) #16
  %77 = load i8, ptr %12, align 1, !tbaa !85, !range !87, !noundef !88
  %78 = trunc i8 %77 to i1
  br i1 %78, label %79, label %81

79:                                               ; preds = %76
  %80 = load i32, ptr %22, align 4, !tbaa !75
  br label %83

81:                                               ; preds = %76
  %82 = load i32, ptr %21, align 4, !tbaa !75
  br label %83

83:                                               ; preds = %81, %79
  %84 = phi i32 [ %80, %79 ], [ %82, %81 ]
  store i32 %84, ptr %24, align 4, !tbaa !75
  call void @llvm.lifetime.start.p0(i64 4, ptr %25) #16
  %85 = load i8, ptr %12, align 1, !tbaa !85, !range !87, !noundef !88
  %86 = trunc i8 %85 to i1
  br i1 %86, label %87, label %89

87:                                               ; preds = %83
  %88 = load i32, ptr %21, align 4, !tbaa !75
  br label %91

89:                                               ; preds = %83
  %90 = load i32, ptr %22, align 4, !tbaa !75
  br label %91

91:                                               ; preds = %89, %87
  %92 = phi i32 [ %88, %87 ], [ %90, %89 ]
  store i32 %92, ptr %25, align 4, !tbaa !75
  %93 = load i32, ptr %19, align 4, !tbaa !75
  %94 = icmp eq i32 %93, 1
  %95 = zext i1 %94 to i32
  %96 = getelementptr inbounds nuw %"class.zxing::qrcode::Detector", ptr %26, i32 0, i32 2
  %97 = call noundef ptr @_ZNK5zxing3RefINS_9BitMatrixEEptEv(ptr noundef nonnull align 8 dereferenceable(8) %96)
  %98 = load i32, ptr %24, align 4, !tbaa !75
  %99 = load i32, ptr %25, align 4, !tbaa !75
  %100 = call noundef zeroext i8 @_ZNK5zxing9BitMatrix3getEii(ptr noundef nonnull align 8 dereferenceable(346) %97, i32 noundef %98, i32 noundef %99)
  %101 = zext i8 %100 to i32
  %102 = xor i32 %95, %101
  %103 = icmp ne i32 %102, 0
  br i1 %103, label %116, label %104

104:                                              ; preds = %91
  %105 = load i32, ptr %19, align 4, !tbaa !75
  %106 = icmp eq i32 %105, 2
  br i1 %106, label %107, label %113

107:                                              ; preds = %104
  %108 = load i32, ptr %21, align 4, !tbaa !75
  %109 = load i32, ptr %22, align 4, !tbaa !75
  %110 = load i32, ptr %8, align 4, !tbaa !75
  %111 = load i32, ptr %9, align 4, !tbaa !75
  %112 = call noundef float @_ZN5zxing6common9MathUtils8distanceEiiii(i32 noundef %108, i32 noundef %109, i32 noundef %110, i32 noundef %111)
  store float %112, ptr %6, align 4
  store i32 1, ptr %23, align 4
  br label %135

113:                                              ; preds = %104
  %114 = load i32, ptr %19, align 4, !tbaa !75
  %115 = add nsw i32 %114, 1
  store i32 %115, ptr %19, align 4, !tbaa !75
  br label %116

116:                                              ; preds = %113, %91
  %117 = load i32, ptr %15, align 4, !tbaa !75
  %118 = load i32, ptr %16, align 4, !tbaa !75
  %119 = add nsw i32 %118, %117
  store i32 %119, ptr %16, align 4, !tbaa !75
  %120 = load i32, ptr %16, align 4, !tbaa !75
  %121 = icmp sgt i32 %120, 0
  br i1 %121, label %122, label %134

122:                                              ; preds = %116
  %123 = load i32, ptr %22, align 4, !tbaa !75
  %124 = load i32, ptr %11, align 4, !tbaa !75
  %125 = icmp eq i32 %123, %124
  br i1 %125, label %126, label %127

126:                                              ; preds = %122
  store i32 2, ptr %23, align 4
  br label %135

127:                                              ; preds = %122
  %128 = load i32, ptr %18, align 4, !tbaa !75
  %129 = load i32, ptr %22, align 4, !tbaa !75
  %130 = add nsw i32 %129, %128
  store i32 %130, ptr %22, align 4, !tbaa !75
  %131 = load i32, ptr %14, align 4, !tbaa !75
  %132 = load i32, ptr %16, align 4, !tbaa !75
  %133 = sub nsw i32 %132, %131
  store i32 %133, ptr %16, align 4, !tbaa !75
  br label %134

134:                                              ; preds = %127, %116
  store i32 0, ptr %23, align 4
  br label %135

135:                                              ; preds = %134, %126, %107
  call void @llvm.lifetime.end.p0(i64 4, ptr %25) #16
  call void @llvm.lifetime.end.p0(i64 4, ptr %24) #16
  %136 = load i32, ptr %23, align 4
  switch i32 %136, label %142 [
    i32 0, label %137
  ]

137:                                              ; preds = %135
  br label %138

138:                                              ; preds = %137
  %139 = load i32, ptr %17, align 4, !tbaa !75
  %140 = load i32, ptr %21, align 4, !tbaa !75
  %141 = add nsw i32 %140, %139
  store i32 %141, ptr %21, align 4, !tbaa !75
  br label %71, !llvm.loop !167

142:                                              ; preds = %135, %75
  call void @llvm.lifetime.end.p0(i64 4, ptr %22) #16
  call void @llvm.lifetime.end.p0(i64 4, ptr %21) #16
  %143 = load i32, ptr %23, align 4
  switch i32 %143, label %157 [
    i32 2, label %144
  ]

144:                                              ; preds = %142
  %145 = load i32, ptr %19, align 4, !tbaa !75
  %146 = icmp eq i32 %145, 2
  br i1 %146, label %147, label %155

147:                                              ; preds = %144
  %148 = load i32, ptr %10, align 4, !tbaa !75
  %149 = load i32, ptr %17, align 4, !tbaa !75
  %150 = add nsw i32 %148, %149
  %151 = load i32, ptr %11, align 4, !tbaa !75
  %152 = load i32, ptr %8, align 4, !tbaa !75
  %153 = load i32, ptr %9, align 4, !tbaa !75
  %154 = call noundef float @_ZN5zxing6common9MathUtils8distanceEiiii(i32 noundef %150, i32 noundef %151, i32 noundef %152, i32 noundef %153)
  store float %154, ptr %6, align 4
  store i32 1, ptr %23, align 4
  br label %157

155:                                              ; preds = %144
  %156 = call noundef float @_ZN5zxing3nanEv()
  store float %156, ptr %6, align 4
  store i32 1, ptr %23, align 4
  br label %157

157:                                              ; preds = %155, %147, %142
  call void @llvm.lifetime.end.p0(i64 4, ptr %20) #16
  call void @llvm.lifetime.end.p0(i64 4, ptr %19) #16
  call void @llvm.lifetime.end.p0(i64 4, ptr %18) #16
  call void @llvm.lifetime.end.p0(i64 4, ptr %17) #16
  call void @llvm.lifetime.end.p0(i64 4, ptr %16) #16
  call void @llvm.lifetime.end.p0(i64 4, ptr %15) #16
  call void @llvm.lifetime.end.p0(i64 4, ptr %14) #16
  call void @llvm.lifetime.end.p0(i64 1, ptr %12) #16
  %158 = load float, ptr %6, align 4
  ret float %158
}