; Function Attrs: mustprogress nofree norecurse nosync nounwind willreturn memory(read, inaccessiblemem: none) uwtable
define hidden noundef float @_ZN5zxing6qrcode8Detector24sizeOfBlackWhiteBlackRunEiiii(ptr noundef nonnull readonly align 8 captures(none) dereferenceable(60) %0, i32 noundef %1, i32 noundef %2, i32 noundef %3, i32 noundef %4) local_unnamed_addr #10 align 2 {
  %6 = sub nsw i32 %4, %2
  %7 = tail call i32 @llvm.abs.i32(i32 %6, i1 true)
  %8 = sub nsw i32 %3, %1
  %9 = tail call i32 @llvm.abs.i32(i32 %8, i1 true)
  %10 = icmp samesign ugt i32 %7, %9
  br i1 %10, label %11, label %12

11:                                               ; preds = %5
  br label %12

12:                                               ; preds = %11, %5
  %.pre-phi120 = phi i32 [ %9, %11 ], [ %7, %5 ]
  %.pre-phi119 = phi i32 [ %8, %11 ], [ %6, %5 ]
  %.pre-phi118 = phi i32 [ %7, %11 ], [ %9, %5 ]
  %.075 = phi i32 [ %3, %11 ], [ %4, %5 ]
  %.074 = phi i32 [ %4, %11 ], [ %3, %5 ]
  %.069 = phi i32 [ %1, %11 ], [ %2, %5 ]
  %.062 = phi i32 [ %2, %11 ], [ %1, %5 ]
  %13 = icmp slt i32 %.062, %.074
  %14 = select i1 %13, i32 1, i32 -1
  %15 = icmp slt i32 %.069, %.075
  %16 = select i1 %15, i32 1, i32 -1
  %17 = add nsw i32 %14, %.074
  %.not102 = icmp eq i32 %.062, %17
  br i1 %.not102, label %._crit_edge.thread, label %.lr.ph

.lr.ph:                                           ; preds = %12
  %18 = sub nsw i32 0, %.pre-phi118
  %19 = ashr i32 %18, 1
  %20 = getelementptr inbounds nuw i8, ptr %0, i64 16
  %21 = load ptr, ptr %20, align 8, !tbaa !10
  %22 = getelementptr inbounds nuw i8, ptr %21, i64 12
  %23 = load i32, ptr %22, align 4, !tbaa !127
  %24 = getelementptr inbounds nuw i8, ptr %21, i64 312
  %25 = load ptr, ptr %24, align 8, !tbaa !146
  %26 = getelementptr inbounds nuw i8, ptr %25, i64 16
  %27 = load ptr, ptr %26, align 8, !tbaa !147
  br i1 %10, label %.lr.ph.split.us, label %.lr.ph.split

.lr.ph.split.us:                                  ; preds = %.lr.ph, %47
  %.065106.us = phi i32 [ %.166.ph.us, %47 ], [ %.069, %.lr.ph ]
  %.068105.us = phi i32 [ %48, %47 ], [ %.062, %.lr.ph ]
  %.070104.us = phi i32 [ %.272.us, %47 ], [ 0, %.lr.ph ]
  %.076103.us = phi i32 [ %.177.ph.us, %47 ], [ %19, %.lr.ph ]
  %28 = icmp eq i32 %.070104.us, 1
  %29 = mul nsw i32 %23, %.068105.us
  %30 = add nsw i32 %29, %.065106.us
  %31 = sext i32 %30 to i64
  %32 = getelementptr inbounds nuw i8, ptr %27, i64 %31
  %33 = load i8, ptr %32, align 1, !tbaa !149
  %34 = zext i1 %28 to i8
  %.not81.us = icmp eq i8 %33, %34
  br i1 %.not81.us, label %35, label %39

35:                                               ; preds = %.lr.ph.split.us
  %36 = icmp eq i32 %.070104.us, 2
  br i1 %36, label %.split.us, label %37

37:                                               ; preds = %35
  %38 = add nuw nsw i32 %.070104.us, 1
  br label %39

39:                                               ; preds = %.lr.ph.split.us, %37
  %.272.us = phi i32 [ %.070104.us, %.lr.ph.split.us ], [ %38, %37 ]
  %40 = add nsw i32 %.076103.us, %.pre-phi120
  %41 = icmp sgt i32 %40, 0
  br i1 %41, label %42, label %47

42:                                               ; preds = %39
  %43 = icmp eq i32 %.065106.us, %.075
  br i1 %43, label %._crit_edge, label %44

44:                                               ; preds = %42
  %45 = add nsw i32 %.065106.us, %16
  %46 = sub nsw i32 %40, %.pre-phi118
  br label %47

47:                                               ; preds = %44, %39
  %.177.ph.us = phi i32 [ %40, %39 ], [ %46, %44 ]
  %.166.ph.us = phi i32 [ %.065106.us, %39 ], [ %45, %44 ]
  %48 = add nsw i32 %.068105.us, %14
  %.not.us = icmp eq i32 %.068105.us, %.074
  br i1 %.not.us, label %._crit_edge, label %.lr.ph.split.us, !llvm.loop !153

.lr.ph.split:                                     ; preds = %.lr.ph, %68
  %.065106 = phi i32 [ %.166.ph, %68 ], [ %.069, %.lr.ph ]
  %.068105 = phi i32 [ %69, %68 ], [ %.062, %.lr.ph ]
  %.070104 = phi i32 [ %.272, %68 ], [ 0, %.lr.ph ]
  %.076103 = phi i32 [ %.177.ph, %68 ], [ %19, %.lr.ph ]
  %49 = icmp eq i32 %.070104, 1
  %50 = mul nsw i32 %23, %.065106
  %51 = add nsw i32 %50, %.068105
  %52 = sext i32 %51 to i64
  %53 = getelementptr inbounds nuw i8, ptr %27, i64 %52
  %54 = load i8, ptr %53, align 1, !tbaa !149
  %55 = zext i1 %49 to i8
  %.not81 = icmp eq i8 %54, %55
  br i1 %.not81, label %56, label %60

56:                                               ; preds = %.lr.ph.split
  %57 = icmp eq i32 %.070104, 2
  br i1 %57, label %.split.us, label %58

58:                                               ; preds = %56
  %59 = add nuw nsw i32 %.070104, 1
  br label %60

60:                                               ; preds = %58, %.lr.ph.split
  %.272 = phi i32 [ %.070104, %.lr.ph.split ], [ %59, %58 ]
  %61 = add nsw i32 %.076103, %.pre-phi120
  %62 = icmp sgt i32 %61, 0
  br i1 %62, label %63, label %68

63:                                               ; preds = %60
  %64 = icmp eq i32 %.065106, %.075
  br i1 %64, label %._crit_edge, label %65

65:                                               ; preds = %63
  %66 = add nsw i32 %.065106, %16
  %67 = sub nsw i32 %61, %.pre-phi118
  br label %68

68:                                               ; preds = %65, %60
  %.177.ph = phi i32 [ %61, %60 ], [ %67, %65 ]
  %.166.ph = phi i32 [ %.065106, %60 ], [ %66, %65 ]
  %69 = add nsw i32 %.068105, %14
  %.not = icmp eq i32 %.068105, %.074
  br i1 %.not, label %._crit_edge, label %.lr.ph.split, !llvm.loop !153

.split.us:                                        ; preds = %56, %35
  %.us-phi = phi i32 [ %.068105.us, %35 ], [ %.068105, %56 ]
  %.us-phi109 = phi i32 [ %.065106.us, %35 ], [ %.065106, %56 ]
  %70 = sub nsw i32 %.us-phi, %.062
  %71 = sub nsw i32 %.us-phi109, %.069
  %72 = mul nsw i32 %70, %70
  %73 = mul nsw i32 %71, %71
  %74 = add nuw nsw i32 %73, %72
  %75 = uitofp nneg i32 %74 to float
  %sqrt.i = tail call noundef float @llvm.sqrt.f32(float %75)
  br label %._crit_edge.thread

._crit_edge:                                      ; preds = %63, %68, %42, %47
  %.171.ph = phi i32 [ %.272.us, %47 ], [ %.272.us, %42 ], [ %.272, %68 ], [ %.272, %63 ]
  %76 = icmp eq i32 %.171.ph, 2
  br i1 %76, label %77, label %._crit_edge.thread

77:                                               ; preds = %._crit_edge
  %78 = sub nsw i32 %17, %.062
  %79 = mul nsw i32 %78, %78
  %80 = mul nsw i32 %.pre-phi119, %.pre-phi119
  %81 = add nuw nsw i32 %79, %80
  %82 = uitofp nneg i32 %81 to float
  %sqrt.i82 = tail call noundef float @llvm.sqrt.f32(float %82)
  br label %._crit_edge.thread

._crit_edge.thread:                               ; preds = %12, %._crit_edge, %.split.us, %77
  %.3 = phi float [ %sqrt.i82, %77 ], [ %sqrt.i, %.split.us ], [ 0x7FF8000000000000, %._crit_edge ], [ 0x7FF8000000000000, %12 ]
  ret float %.3
}